(dp0
S'2016-05-13'
p1
(lp2
F0.47410875250788
aF0.5258912474921213
asS'2016-05-31'
p3
(lp4
F0.6409838561311008
aF0.359016143868899
asS'2016-05-12'
p5
(lp6
F0.6231896899685766
aF0.37681031003142446
asS'2016-05-28'
p7
(lp8
F0.7605723095011185
aF0.23942769049888146
asS'2016-05-29'
p9
(lp10
F0.6180668092394334
aF0.3819331907605671
as.