(dp0
S'2016-07-11'
p1
(lp2
F0.6304984996793251
aF0.36950150032067475
asS'2016-07-10'
p3
(lp4
F0.6983494047590455
aF0.3016505952409548
asS'2016-07-13'
p5
(lp6
F0.6526233009203071
aF0.3473766990796936
asS'2016-07-12'
p7
(lp8
F0.5895969468714193
aF0.41040305312858066
asS'2016-07-15'
p9
(lp10
F0.634131880973746
aF0.3658681190262551
asS'2016-07-14'
p11
(lp12
F0.6851936224857249
aF0.31480637751427626
asS'2016-07-17'
p13
(lp14
F0.5888370010140901
aF0.41116299898590963
asS'2016-07-16'
p15
(lp16
F0.6808137752147628
aF0.3191862247852356
asS'2016-07-19'
p17
(lp18
F0.5646058288677811
aF0.4353941711322186
asS'2016-07-18'
p19
(lp20
F0.6952207260646992
aF0.3047792739353002
asS'2016-07-01'
p21
(lp22
F0.6926809649581276
aF0.3073190350418713
asS'2016-07-20'
p23
(lp24
F0.6220387120795391
aF0.3779612879204604
asS'2016-07-07'
p25
(lp26
F0.6650171216381175
aF0.33498287836188273
asS'2016-07-22'
p27
(lp28
F0.6801556525234488
aF0.31984434747655105
asS'2016-07-05'
p29
(lp30
F0.47922936694747076
aF0.5207706330525296
asS'2016-07-02'
p31
(lp32
F0.6785741294887422
aF0.3214258705112562
asS'2016-07-03'
p33
(lp34
F0.611867218926744
aF0.38813278107325583
asS'2016-07-26'
p35
(lp36
F0.548366189459182
aF0.45163381054081914
asS'2016-07-27'
p37
(lp38
F0.6595325631768035
aF0.3404674368231965
asS'2016-07-06'
p39
(lp40
F0.38872646505616654
aF0.6112735349438337
asS'2016-07-21'
p41
(lp42
F0.6363356888387011
aF0.36366431116129955
asS'2016-07-04'
p43
(lp44
F0.6390953457227275
aF0.36090465427727225
asS'2016-07-23'
p45
(lp46
F0.6995690201943361
aF0.300430979805663
asS'2016-07-08'
p47
(lp48
F0.7759375670758955
aF0.22406243292410452
asS'2016-07-09'
p49
(lp50
F0.7221816587190598
aF0.2778183412809408
asS'2016-07-28'
p51
(lp52
F0.6771226989394832
aF0.3228773010605168
asS'2016-07-29'
p53
(lp54
F0.5448529488726843
aF0.4551470511273151
asS'2016-07-24'
p55
(lp56
F0.6232964968287902
aF0.3767035031712092
asS'2016-07-25'
p57
(lp58
F0.6285186862065483
aF0.3714813137934516
asS'2016-07-31'
p59
(lp60
F0.7039691864441252
aF0.2960308135558737
asS'2016-07-30'
p61
(lp62
F0.6137479227079968
aF0.3862520772920031
as.