(dp0
S'2016-05-13'
p1
(lp2
F0.5450027559086025
aF0.4549972440914395
asS'2016-05-31'
p3
(lp4
F0.5233493355929814
aF0.47665066440702625
asS'2016-05-12'
p5
(lp6
F0.5390451031514842
aF0.46095489684855284
asS'2016-05-28'
p7
(lp8
F0.5294171804794853
aF0.4705828195205149
as.