(dp0
S'2016-05-13'
p1
(lp2
F0.733503896924643
aF0.26649610307535665
asS'2016-05-31'
p3
(lp4
F0.7751119218534429
aF0.2248880781465575
asS'2016-05-12'
p5
(lp6
F0.8014798858389773
aF0.19852011416102455
asS'2016-05-28'
p7
(lp8
F0.7875661220819785
aF0.21243387791802296
as.