(dp0
S'2016-06-27'
p1
(lp2
F0.642394886483419
aF0.357605113516582
asS'2016-06-26'
p3
(lp4
F0.5999265385661424
aF0.400073461433857
asS'2016-06-25'
p5
(lp6
F0.714922405832829
aF0.285077594167171
asS'2016-06-24'
p7
(lp8
F0.6192136012981769
aF0.3807863987018225
asS'2016-06-23'
p9
(lp10
F0.6743419540393318
aF0.3256580459606685
asS'2016-06-08'
p11
(lp12
F0.7623598582506819
aF0.23764014174931863
asS'2016-06-21'
p13
(lp14
F0.6317583326144631
aF0.3682416673855365
asS'2016-06-20'
p15
(lp16
F0.5958170850993142
aF0.404182914900686
asS'2016-06-07'
p17
(lp18
F0.8300736724234566
aF0.16992632757654358
asS'2016-06-01'
p19
(lp20
F0.5938067049556898
aF0.40619329504430907
asS'2016-06-29'
p21
(lp22
F0.6266008682747136
aF0.373399131725286
asS'2016-06-28'
p23
(lp24
F0.4538713587130788
aF0.5461286412869214
asS'2016-06-09'
p25
(lp26
F0.6885992607067343
aF0.3114007392932649
asS'2016-06-22'
p27
(lp28
F0.6290603861784287
aF0.37093961382157176
asS'2016-06-30'
p29
(lp30
F0.7355756219795156
aF0.2644243780204847
asS'2016-06-18'
p31
(lp32
F0.6435139118946844
aF0.3564860881053159
asS'2016-06-19'
p33
(lp34
F0.7205425360004399
aF0.27945746399956034
asS'2016-06-16'
p35
(lp36
F0.7514889109228341
aF0.24851108907716535
asS'2016-06-17'
p37
(lp38
F0.7917244537801039
aF0.20827554621989622
asS'2016-06-14'
p39
(lp40
F0.6609548122762856
aF0.33904518772371367
asS'2016-06-15'
p41
(lp42
F0.6955286612674001
aF0.3044713387326001
asS'2016-06-12'
p43
(lp44
F0.6556595758456749
aF0.34434042415432553
asS'2016-06-13'
p45
(lp46
F0.6492584772391681
aF0.35074152276083126
asS'2016-06-10'
p47
(lp48
F0.5649876891010827
aF0.43501231089891745
asS'2016-06-11'
p49
(lp50
F0.633854092153755
aF0.3661459078462454
as.