(dp0
S'2016-06-12'
p1
(lp2
F0.5085594088336346
aF0.4914405911663602
asS'2016-06-13'
p3
(lp4
F0.5217341725847033
aF0.4782658274153061
asS'2016-06-29'
p5
(lp6
F0.5315564417948049
aF0.4684435582051898
asS'2016-06-28'
p7
(lp8
F0.5313467757628593
aF0.4686532242371481
as.