(dp0
S'2016-05-31'
p1
(lp2
F0.5658729516899517
aF0.43412704831004845
asS'2016-05-12'
p3
(lp4
F0.534984209213124
aF0.4650157907868767
asS'2016-05-28'
p5
(lp6
F0.7119933453780969
aF0.2880066546219044
as.