(dp0
S'2016-07-11'
p1
(lp2
F0.7121932582181344
aF0.28780674178186577
asS'2016-07-10'
p3
(lp4
F0.6110619090696895
aF0.3889380909303107
asS'2016-07-13'
p5
(lp6
F0.5161235270678088
aF0.48387647293219055
asS'2016-07-12'
p7
(lp8
F0.5694290206903514
aF0.4305709793096485
asS'2016-07-15'
p9
(lp10
F0.6017339672240664
aF0.39826603277593353
asS'2016-07-14'
p11
(lp12
F0.5567980331164099
aF0.44320196688359037
asS'2016-07-17'
p13
(lp14
F0.4731149083833349
aF0.5268850916166657
asS'2016-07-16'
p15
(lp16
F0.6574810190616603
aF0.3425189809383398
asS'2016-07-19'
p17
(lp18
F0.5815593210390159
aF0.41844067896098386
asS'2016-07-18'
p19
(lp20
F0.5940548385199562
aF0.4059451614800443
asS'2016-07-01'
p21
(lp22
F0.5883834603176022
aF0.41161653968239775
asS'2016-07-20'
p23
(lp24
F0.6328353136982585
aF0.36716468630174115
asS'2016-07-07'
p25
(lp26
F0.6623420314440334
aF0.33765796855596636
asS'2016-07-22'
p27
(lp28
F0.5889232996014089
aF0.41107670039859107
asS'2016-07-05'
p29
(lp30
F0.580005058105862
aF0.4199949418941379
asS'2016-07-02'
p31
(lp32
F0.6241177662511906
aF0.3758822337488098
asS'2016-07-03'
p33
(lp34
F0.8112958534701921
aF0.1887041465298074
asS'2016-07-26'
p35
(lp36
F0.5175206531705591
aF0.4824793468294406
asS'2016-07-27'
p37
(lp38
F0.5630486728092876
aF0.43695132719071267
asS'2016-07-06'
p39
(lp40
F0.6195575729009983
aF0.3804424270990014
asS'2016-07-21'
p41
(lp42
F0.6355889354413051
aF0.36441106455869504
asS'2016-07-04'
p43
(lp44
F0.7113706541792562
aF0.2886293458207438
asS'2016-07-23'
p45
(lp46
F0.5122940994909567
aF0.487705900509043
asS'2016-07-08'
p47
(lp48
F0.6507240398348131
aF0.349275960165187
asS'2016-07-09'
p49
(lp50
F0.5502553126538535
aF0.44974468734614653
asS'2016-07-28'
p51
(lp52
F0.5289614032812936
aF0.47103859671870646
asS'2016-07-29'
p53
(lp54
F0.5104776114173784
aF0.4895223885826218
asS'2016-07-24'
p55
(lp56
F0.5246614949089824
aF0.47533850509101727
asS'2016-07-25'
p57
(lp58
F0.5165189599607964
aF0.4834810400392037
asS'2016-07-31'
p59
(lp60
F0.5207593512270966
aF0.4792406487729028
asS'2016-07-30'
p61
(lp62
F0.560162777565087
aF0.43983722243491297
as.