(dp0
S'2016-07-24'
p1
(lp2
F0.6292201540223764
aF0.37077984597762353
asS'2016-07-03'
p3
(lp4
F0.5832329769145574
aF0.41676702308544206
asS'2016-07-13'
p5
(lp6
F0.6373102060340616
aF0.36268979396593853
asS'2016-07-12'
p7
(lp8
F0.6313070557847428
aF0.36869294421525617
asS'2016-07-06'
p9
(lp10
F0.6270507500152392
aF0.3729492499847612
asS'2016-07-04'
p11
(lp12
F0.6633723276977569
aF0.3366276723022428
asS'2016-07-28'
p13
(lp14
F0.6221781150283338
aF0.3778218849716663
asS'2016-07-29'
p15
(lp16
F0.6041732533425094
aF0.39582674665749074
asS'2016-07-31'
p17
(lp18
F0.6408265649029481
aF0.3591734350970516
as.