(dp0
S'2016-05-19'
p1
(lp2
F0.7904163079753198
aF0.2095836920246806
asS'2016-05-18'
p3
(lp4
F0.7988912820021673
aF0.20110871799783336
asS'2016-05-17'
p5
(lp6
F0.7845716438302207
aF0.2154283561697789
asS'2016-05-16'
p7
(lp8
F0.7872205269102364
aF0.21277947308976322
asS'2016-05-15'
p9
(lp10
F0.7806449474195993
aF0.2193550525803999
asS'2016-05-14'
p11
(lp12
F0.7642834894916788
aF0.23571651050832174
asS'2016-05-13'
p13
(lp14
F0.7841871360796311
aF0.2158128639203692
asS'2016-05-12'
p15
(lp16
F0.8014549358061865
aF0.19854506419381535
asS'2016-05-11'
p17
(lp18
F0.8187375993350959
aF0.18126240066490434
asS'2016-05-10'
p19
(lp20
F0.8165955309158364
aF0.18340446908416289
asS'2016-05-31'
p21
(lp22
F0.7751613950903102
aF0.22483860490969013
asS'2016-05-30'
p23
(lp24
F0.7888763179736531
aF0.21112368202634635
asS'2016-05-08'
p25
(lp26
F0.8314691258683768
aF0.1685308741316217
asS'2016-05-09'
p27
(lp28
F0.8293335452341822
aF0.17066645476581638
asS'2016-05-01'
p29
(lp30
F0.8388021627703205
aF0.16119783722968084
asS'2016-05-02'
p31
(lp32
F0.8298622328844332
aF0.17013776711556694
asS'2016-05-03'
p33
(lp34
F0.8358071465736314
aF0.16419285342637002
asS'2016-05-04'
p35
(lp36
F0.8324649554088053
aF0.16753504459119611
asS'2016-05-05'
p37
(lp38
F0.8330664541714468
aF0.1669335458285529
asS'2016-05-06'
p39
(lp40
F0.833964627700182
aF0.16603537229981663
asS'2016-05-07'
p41
(lp42
F0.8255793400849402
aF0.17442065991506064
asS'2016-05-26'
p43
(lp44
F0.7687124553875808
aF0.2312875446124207
asS'2016-05-27'
p45
(lp46
F0.7546776499165477
aF0.24532235008345304
asS'2016-05-24'
p47
(lp48
F0.7592541068472594
aF0.24074589315273992
asS'2016-05-25'
p49
(lp50
F0.7603215894544261
aF0.23967841054557573
asS'2016-05-22'
p51
(lp52
F0.7821627867860105
aF0.21783721321398838
asS'2016-05-23'
p53
(lp54
F0.772658470308501
aF0.2273415296914997
asS'2016-05-20'
p55
(lp56
F0.7695539151423423
aF0.23044608485765786
asS'2016-05-21'
p57
(lp58
F0.7591123636902887
aF0.24088763630971152
asS'2016-05-28'
p59
(lp60
F0.7875661220819785
aF0.21243387791802296
asS'2016-05-29'
p61
(lp62
F0.7936867277316555
aF0.20631327226834437
as.