(dp0
S'2016-06-27'
p1
(lp2
F0.7194721211761927
aF0.2805278788238075
asS'2016-06-26'
p3
(lp4
F0.6399168590710048
aF0.3600831409289953
asS'2016-06-25'
p5
(lp6
F0.7235677321108552
aF0.2764322678891447
asS'2016-06-24'
p7
(lp8
F0.7173338920608064
aF0.2826661079391941
asS'2016-06-23'
p9
(lp10
F0.741100974109473
aF0.2588990258905261
asS'2016-06-08'
p11
(lp12
F0.7459426277227967
aF0.2540573722772027
asS'2016-06-21'
p13
(lp14
F0.7348908480517584
aF0.2651091519482418
asS'2016-06-20'
p15
(lp16
F0.7302480408066019
aF0.26975195919339795
asS'2016-06-07'
p17
(lp18
F0.7189837396273349
aF0.2810162603726654
asS'2016-06-01'
p19
(lp20
F0.6774992337971087
aF0.3225007662028914
asS'2016-06-29'
p21
(lp22
F0.752299585396424
aF0.24770041460357395
asS'2016-06-28'
p23
(lp24
F0.6211495823346606
aF0.3788504176653404
asS'2016-06-09'
p25
(lp26
F0.7079594070091298
aF0.29204059299086993
asS'2016-06-22'
p27
(lp28
F0.7448791360284629
aF0.25512086397153727
asS'2016-06-30'
p29
(lp30
F0.7289384600288397
aF0.27106153997116017
asS'2016-06-18'
p31
(lp32
F0.710733790802108
aF0.2892662091978927
asS'2016-06-19'
p33
(lp34
F0.7145743593924772
aF0.2854256406075227
asS'2016-06-16'
p35
(lp36
F0.6713543830412619
aF0.32864561695873795
asS'2016-06-17'
p37
(lp38
F0.6608263000077472
aF0.33917369999225294
asS'2016-06-14'
p39
(lp40
F0.6054101529131853
aF0.39458984708681333
asS'2016-06-15'
p41
(lp42
F0.6804876482780624
aF0.3195123517219381
asS'2016-06-12'
p43
(lp44
F0.7258711043985165
aF0.2741288956014835
asS'2016-06-13'
p45
(lp46
F0.6116544797629296
aF0.38834552023707114
asS'2016-06-10'
p47
(lp48
F0.7301874491259068
aF0.2698125508740924
asS'2016-06-11'
p49
(lp50
F0.767015453289471
aF0.2329845467105286
as.