(dp0
S'2016-05-19'
p1
(lp2
F0.6496929334594393
aF0.3503070665405596
asS'2016-05-18'
p3
(lp4
F0.6988111528792244
aF0.3011888471207753
asS'2016-05-17'
p5
(lp6
F0.7408128895982824
aF0.2591871104017181
asS'2016-05-16'
p7
(lp8
F0.7344047487094495
aF0.2655952512905511
asS'2016-05-15'
p9
(lp10
F0.7837526355172058
aF0.2162473644827931
asS'2016-05-14'
p11
(lp12
F0.8309104621472603
aF0.16908953785273964
asS'2016-05-13'
p13
(lp14
F0.7585061723939747
aF0.24149382760602467
asS'2016-05-12'
p15
(lp16
F0.7441982339334127
aF0.25580176606658717
asS'2016-05-11'
p17
(lp18
F0.7531642292388674
aF0.24683577076113064
asS'2016-05-10'
p19
(lp20
F0.748547697028032
aF0.25145230297196675
asS'2016-05-31'
p21
(lp22
F0.6868291339611918
aF0.31317086603880806
asS'2016-05-30'
p23
(lp24
F0.7628963042956988
aF0.23710369570430012
asS'2016-05-08'
p25
(lp26
F0.7238512015964126
aF0.2761487984035875
asS'2016-05-09'
p27
(lp28
F0.6808528968349989
aF0.31914710316500056
asS'2016-05-01'
p29
(lp30
F0.6902985367818699
aF0.3097014632181299
asS'2016-05-02'
p31
(lp32
F0.7092399966329785
aF0.29076000336702096
asS'2016-05-03'
p33
(lp34
F0.7145489075971158
aF0.28545109240288385
asS'2016-05-04'
p35
(lp36
F0.7275806083307893
aF0.27241939166920953
asS'2016-05-05'
p37
(lp38
F0.7345942402815631
aF0.2654057597184371
asS'2016-05-06'
p39
(lp40
F0.7069217928006422
aF0.2930782071993568
asS'2016-05-07'
p41
(lp42
F0.7155386068002464
aF0.28446139319975355
asS'2016-05-26'
p43
(lp44
F0.7369439145318262
aF0.26305608546817255
asS'2016-05-27'
p45
(lp46
F0.7805125203534817
aF0.21948747964651785
asS'2016-05-24'
p47
(lp48
F0.7211865870302309
aF0.27881341296976864
asS'2016-05-25'
p49
(lp50
F0.7459762142065677
aF0.2540237857934315
asS'2016-05-22'
p51
(lp52
F0.7808748907027017
aF0.21912510929729925
asS'2016-05-23'
p53
(lp54
F0.7359714095669292
aF0.2640285904330699
asS'2016-05-20'
p55
(lp56
F0.6951082943525642
aF0.30489170564743573
asS'2016-05-21'
p57
(lp58
F0.7212731034963721
aF0.27872689650362775
asS'2016-05-28'
p59
(lp60
F0.7176709871950693
aF0.2823290128049309
asS'2016-05-29'
p61
(lp62
F0.7650892881904858
aF0.2349107118095141
as.