(dp0
S'2016-06-27'
p1
(lp2
F0.6677944991729604
aF0.33220550082703854
asS'2016-06-26'
p3
(lp4
F0.5336610808755061
aF0.4663389191244937
asS'2016-06-25'
p5
(lp6
F0.5221557018364472
aF0.4778442981635521
asS'2016-06-24'
p7
(lp8
F0.65855874391026
aF0.3414412560897377
asS'2016-06-23'
p9
(lp10
F0.7158915462402787
aF0.28410845375971816
asS'2016-06-08'
p11
(lp12
F0.5857839612181033
aF0.41421603878189706
asS'2016-06-21'
p13
(lp14
F0.5676508593136887
aF0.4323491406863113
asS'2016-06-20'
p15
(lp16
F0.5558590894836519
aF0.44414091051634774
asS'2016-06-07'
p17
(lp18
F0.45318305045345725
aF0.546816949546543
asS'2016-06-01'
p19
(lp20
F0.5476522804530202
aF0.45234771954697983
asS'2016-06-29'
p21
(lp22
F0.5569776601366376
aF0.4430223398633621
asS'2016-06-28'
p23
(lp24
F0.5726245958819929
aF0.4273754041180065
asS'2016-06-09'
p25
(lp26
F0.48186994714723963
aF0.5181300528527605
asS'2016-06-22'
p27
(lp28
F0.636635985350037
aF0.36336401464996354
asS'2016-06-30'
p29
(lp30
F0.5289726495944802
aF0.4710273504055197
asS'2016-06-18'
p31
(lp32
F0.6025657669252615
aF0.39743423307473885
asS'2016-06-19'
p33
(lp34
F0.4118299938048207
aF0.5881700061951787
asS'2016-06-16'
p35
(lp36
F0.7914383565442197
aF0.20856164345578074
asS'2016-06-17'
p37
(lp38
F0.8331084381376633
aF0.16689156186233742
asS'2016-06-14'
p39
(lp40
F0.5962651764083865
aF0.4037348235916136
asS'2016-06-15'
p41
(lp42
F0.508070512942992
aF0.49192948705700806
asS'2016-06-12'
p43
(lp44
F0.5002821203089647
aF0.4997178796910356
asS'2016-06-13'
p45
(lp46
F0.5899165057882947
aF0.4100834942117053
asS'2016-06-10'
p47
(lp48
F0.6312175246730569
aF0.3687824753269439
asS'2016-06-11'
p49
(lp50
F0.6728263700423327
aF0.3271736299576672
as.