(dp0
S'2016-06-27'
p1
(lp2
F0.7710640731267631
aF0.22893592687323783
asS'2016-06-26'
p3
(lp4
F0.7718303363707861
aF0.22816966362921456
asS'2016-06-25'
p5
(lp6
F0.7600878594264147
aF0.2399121405735863
asS'2016-06-24'
p7
(lp8
F0.7813062591599627
aF0.218693740840038
asS'2016-06-23'
p9
(lp10
F0.784226411881975
aF0.21577358811802605
asS'2016-06-08'
p11
(lp12
F0.7759920395556287
aF0.224007960444372
asS'2016-06-21'
p13
(lp14
F0.7963430799408758
aF0.20365692005912445
asS'2016-06-20'
p15
(lp16
F0.7560094966204313
aF0.24399050337956865
asS'2016-06-07'
p17
(lp18
F0.7831814176727493
aF0.2168185823272506
asS'2016-06-01'
p19
(lp20
F0.7910142499226307
aF0.20898575007736944
asS'2016-06-29'
p21
(lp22
F0.7922849991615867
aF0.20771500083841424
asS'2016-06-28'
p23
(lp24
F0.7806076223101625
aF0.21939237768983738
asS'2016-06-09'
p25
(lp26
F0.7903706038887491
aF0.20962939611125106
asS'2016-06-22'
p27
(lp28
F0.7823790040853487
aF0.2176209959146521
asS'2016-06-30'
p29
(lp30
F0.772593107050429
aF0.22740689294957162
asS'2016-06-18'
p31
(lp32
F0.7917339453948427
aF0.2082660546051575
asS'2016-06-19'
p33
(lp34
F0.7621802120577784
aF0.2378197879422219
asS'2016-06-16'
p35
(lp36
F0.8066434730956324
aF0.19335652690436733
asS'2016-06-17'
p37
(lp38
F0.7674991572239457
aF0.2325008427760542
asS'2016-06-14'
p39
(lp40
F0.8064417794189576
aF0.19355822058104213
asS'2016-06-15'
p41
(lp42
F0.7801756273543689
aF0.21982437264563243
asS'2016-06-12'
p43
(lp44
F0.7789301061379664
aF0.22106989386203427
asS'2016-06-13'
p45
(lp46
F0.7928969158072914
aF0.2071030841927095
asS'2016-06-10'
p47
(lp48
F0.7758382837510899
aF0.22416171624891115
asS'2016-06-11'
p49
(lp50
F0.7831471970888304
aF0.2168528029111677
as.