(dp0
S'2016-01-29'
p1
F0.026838235294117663
sS'2016-01-13'
p2
F-0.02951907131011599
sS'2016-01-12'
p3
F0.017561634582911163
sS'2016-01-11'
p4
F0.01203576341127928
sS'2016-06-27'
p5
F-0.01969292389853137
sS'2016-01-05'
p6
F0.013997395833333325
sS'2016-01-06'
p7
F-0.01899770717327225
sS'2016-06-24'
p8
F0.016863406408094434
sS'2016-06-23'
p9
F0.0023056653491436195
sS'2016-06-22'
p10
F-0.0006651147322913061
sS'2016-06-21'
p11
F-0.013131976362442618
sS'2016-06-20'
p12
F-0.008485639686684124
sS'2016-01-08'
p13
F-0.026563550773369173
sS'2016-06-29'
p14
F-0.0003277613897083436
sS'2016-06-28'
p15
F0.013162335470806634
sS'2016-03-08'
p16
F-0.014190558934260121
sS'2016-03-09'
p17
F-0.005824111822947083
sS'2016-03-07'
p18
F0.028751123090745758
sS'2016-03-04'
p19
F0.006294964028777004
sS'2016-03-02'
p20
F0.0012099213551118918
sS'2016-03-03'
p21
F0.007514277126540426
sS'2016-03-01'
p22
F0.008854961832061043
sS'2016-01-07'
p23
F0.02266576454668477
sS'2016-09-28'
p24
F-0.014901960784313733
sS'2016-09-29'
p25
F-0.00821845174973495
sS'2016-09-22'
p26
F0.0002600104004159649
sS'2016-09-23'
p27
F-0.008611691022964465
sS'2016-09-20'
p28
F-0.010206752159120664
sS'2016-09-21'
p29
F0.004725649776844308
sS'2016-09-26'
p30
F-0.008720930232558282
sS'2016-09-27'
p31
F0.01593625498007972
sS'2016-01-15'
p32
F0.06942800788954627
sS'2016-01-14'
p33
F-0.02400295420974884
sS'2016-04-29'
p34
F-0.015648972077324488
sS'2016-04-28'
p35
F-0.016269960831575753
sS'2016-02-17'
p36
F0.008389261744966443
sS'2016-02-23'
p37
F-0.001614465611882375
sS'2016-02-22'
p38
F0.022969374167776342
sS'2016-03-18'
p39
F0.005255023183925864
sS'2016-02-25'
p40
F0.0012422360248446939
sS'2016-02-24'
p41
F0.039643211100099086
sS'2016-03-15'
p42
F-0.023648648648648744
sS'2016-03-14'
p43
F-0.011232633757020263
sS'2016-03-17'
p44
F0.011927181418706924
sS'2016-03-16'
p45
F0.008181246066708558
sS'2016-03-11'
p46
F-0.013302486986697538
sS'2016-08-30'
p47
F-0.0017962535283551524
sS'2016-08-31'
p48
F-0.01155920883637305
sS'2016-09-30'
p49
F0.013807753584705342
sS'2016-03-21'
p50
F-0.004635352286773751
sS'2016-03-22'
p51
F-0.014573643410852677
sS'2016-03-23'
p52
F-0.018124999999999947
sS'2016-03-24'
p53
F-0.0047709923664122815
sS'2016-03-28'
p54
F0.002876318312559919
sS'2016-03-29'
p55
F-0.0006305170239596335
sS'2016-02-26'
p56
F0.010273972602739895
sS'2016-01-04'
p57
F0.027144772117962422
sS'2016-08-29'
p58
F-0.011150532184490566
sS'2016-08-25'
p59
F0.013336753013593126
sS'2016-08-24'
p60
F0.007653061224489723
sS'2016-08-26'
p61
F-0.006042296072507603
sS'2016-08-23'
p62
F0.022679874869655826
sS'2016-08-22'
p63
F0.005209929512718191
sS'2016-05-26'
p64
F-0.01236476043276668
sS'2016-05-27'
p65
F0.003131850923896067
sS'2016-05-24'
p66
F-0.02302526383114803
sS'2016-05-25'
p67
F0.0584158415841584
sS'2016-09-08'
p68
F-0.013527575442247556
sS'2016-09-09'
p69
F-0.010732492621411474
sS'2016-05-20'
p70
F0.026666666666666776
sS'2016-09-06'
p71
F-0.010608020698576885
sS'2016-09-07'
p72
F0.007308796658835842
sS'2016-09-01'
p73
F-0.0003890545973285065
sS'2016-09-02'
p74
F0.005448884276076826
sS'2016-03-31'
p75
F0.01597243971186965
sS'2016-03-30'
p76
F-0.0025276461295418106
sS'2016-10-06'
p77
F0.011926848661542616
sS'2016-10-07'
p78
F0.012230028623471218
sS'2016-10-04'
p79
F-0.0052383446830802215
sS'2016-10-05'
p80
F-0.006033578174186697
sS'2016-10-03'
p81
F0.0007863695937090731
sS'2016-05-23'
p82
F0.013513513513513443
sS'2016-08-10'
p83
F-0.0005925925925926852
sS'2016-08-11'
p84
F0.012280701754385805
sS'2016-08-12'
p85
F0.01160429358862775
sS'2016-08-15'
p86
F0.008474576271186416
sS'2016-08-16'
p87
F-0.0055072463768115285
sS'2016-08-17'
p88
F-0.005079175380938205
sS'2016-08-18'
p89
F-0.00895522388059693
sS'2016-08-19'
p90
F-0.00761266747868453
sS'2016-09-13'
p91
F0.007258064516128925
sS'2016-09-12'
p92
F0.017740174672489045
sS'2016-05-31'
p93
F-0.0018616196090597325
sS'2016-09-16'
p94
F0.009028146574615068
sS'2016-09-15'
p95
F0.005336179295624409
sS'2016-09-14'
p96
F0.004266666666666576
sS'2016-04-21'
p97
F-0.0069507404049563
sS'2016-04-20'
p98
F0.004854368932038731
sS'2016-09-19'
p99
F0.0010498687664041771
sS'2016-04-22'
p100
F0.010648007301490766
sS'2016-04-25'
p101
F-0.015463917525773137
sS'2016-04-27'
p102
F0.035891089108910784
sS'2016-04-26'
p103
F0.018120393120393007
sS'2016-05-17'
p104
F0.004725897920604983
sS'2016-10-19'
p105
F-0.0017667844522968271
sS'2016-10-18'
p106
F-0.00880060346995226
sS'2016-05-16'
p107
F0.025541545425153547
sS'2016-10-14'
p108
F-0.01280763435459563
sS'2016-10-17'
p109
F0.007916241062308536
sS'2016-10-11'
p110
F-0.012113402061855641
sS'2016-10-10'
p111
F-0.0068912710566616416
sS'2016-10-13'
p112
F0.00963244613434716
sS'2016-10-12'
p113
F0.023944387229660136
sS'2016-05-09'
p114
F0.01998750780762003
sS'2016-08-05'
p115
F0.017528223410576454
sS'2016-08-04'
p116
F0.00149700598802408
sS'2016-07-06'
p117
F0.0162574651625746
sS'2016-07-07'
p118
F0.0029498525073746265
sS'2016-08-01'
p119
F0.001795869500149724
sS'2016-07-05'
p120
F-0.027857829010566795
sS'2016-07-08'
p121
F-0.0006457862447529731
sS'2016-05-03'
p122
F-0.010289990645463107
sS'2016-05-04'
p123
F-0.0028490028490028444
sS'2016-05-05'
p124
F0.008615188257817472
sS'2016-08-09'
p125
F-0.01641266119577946
sS'2016-08-08'
p126
F-0.0061135371179039544
sS'2016-04-18'
p127
F0.015489467162329615
sS'2016-04-19'
p128
F0.004580152671755682
sS'2016-04-14'
p129
F0.003102699348433181
sS'2016-04-15'
p130
F0.001545595054095739
sS'2016-04-11'
p131
F0.014617940199335471
sS'2016-04-12'
p132
F0.006531678641410819
sS'2016-04-13'
p133
F0.03875968992248048
sS'2016-06-16'
p134
F0.01679232350925298
sS'2016-06-17'
p135
F0.021233569261880653
sS'2016-06-14'
p136
F-0.004096961420279872
sS'2016-06-15'
p137
F0.01874999999999997
sS'2016-06-13'
p138
F-0.0020408163265305686
sS'2016-06-10'
p139
F-0.006076975016880476
sS'2016-10-20'
p140
F0.0005068423720222002
sS'2016-10-21'
p141
F0.004326800712649573
sS'2016-02-29'
p142
F-0.003384615384615367
sS'2016-07-11'
p143
F0.009041007426541852
sS'2016-07-13'
p144
F-0.00443880786303109
sS'2016-07-12'
p145
F0.00031725888324878054
sS'2016-07-15'
p146
F-0.013827781269641775
sS'2016-07-14'
p147
F0.002841806125670977
sS'2016-05-19'
p148
F0.023701298701298716
sS'2016-05-18'
p149
F-0.004532211071544208
sS'2016-07-19'
p150
F-0.008448060075093853
sS'2016-07-18'
p151
F0.014915899714376351
sS'2016-05-13'
p152
F0.0035667963683527703
sS'2016-05-12'
p153
F-0.013728893798327244
sS'2016-05-11'
p154
F-0.035484857754664936
sS'2016-05-10'
p155
F0.007948639559767594
sS'2016-04-01'
p156
F-0.0015542430836184104
sS'2016-07-01'
p157
F0.02283105022831048
sS'2016-04-07'
p158
F-0.027357579658834934
sS'2016-04-06'
p159
F0.0
sS'2016-04-05'
p160
F-0.018238993710691882
sS'2016-04-04'
p161
F-0.007776049766718507
sS'2016-08-03'
p162
F0.02327718223583455
sS'2016-04-08'
p163
F-0.006598482349059693
sS'2016-08-02'
p164
F-0.019104477611940316
sS'2016-01-22'
p165
F-0.014812138728323704
sS'2016-01-20'
p166
F0.03229571984435805
sS'2016-01-21'
p167
F0.025178504321683642
sS'2016-06-09'
p168
F-0.03925949569103086
sS'2016-06-08'
p169
F-0.011327879169288842
sS'2016-01-25'
p170
F-0.004779411764705846
sS'2016-06-07'
p171
F0.0044515103338632935
sS'2016-06-06'
p172
F-0.020937500000000053
sS'2016-06-01'
p173
F0.0015542430836181895
sS'2016-06-03'
p174
F-0.00030902348578485815
sS'2016-06-02'
p175
F0.00964230171073102
sS'2016-02-18'
p176
F0.03570225665207136
sS'2016-02-19'
p177
F0.005033557046979818
sS'2016-02-12'
p178
F0.06515151515151525
sS'2016-02-10'
p179
F-0.0229062276306371
sS'2016-02-11'
p180
F-0.0014831294030403838
sS'2016-02-16'
p181
F0.040931545518701484
sS'2016-05-02'
p182
F-0.0006193868070608864
sS'2016-07-25'
p183
F0.010267579340385758
sS'2016-07-26'
p184
F0.02123076923076916
sS'2016-07-27'
p185
F0.00913520097442135
sS'2016-07-20'
p186
F-0.0006287331027978489
sS'2016-07-21'
p187
F0.013819095477386975
sS'2016-07-22'
p188
F-0.0003110419906686784
sS'2016-07-28'
p189
F0.006350166313879675
sS'2016-07-29'
p190
F0.010830324909747275
sS'2016-05-06'
p191
F0.004712535344015147
sS'2016-01-26'
p192
F0.033161385408990364
sS'2016-01-27'
p193
F-0.024678111587982877
sS'2016-06-30'
p194
F0.0036077402427026235
sS'2016-01-19'
p195
F-0.04362292051756006
sS'2016-01-28'
p196
F-0.013533284564740344
sS'2016-02-09'
p197
F-0.01966292134831456
sS'2016-02-08'
p198
F0.02287348105789852
sS'2016-02-01'
p199
F0.02622126436781611
sS'2016-02-03'
p200
F0.0014139271827500583
sS'2016-02-02'
p201
F-0.004220893422441118
sS'2016-02-05'
p202
F-0.002828854314002894
sS'2016-02-04'
p203
F0.019410496046010035
s.