(dp0
S'2016-01-29'
p1
F0.009856733524355295
sS'2016-01-13'
p2
F-0.019239793524167065
sS'2016-01-12'
p3
F0.00023532180256512805
sS'2016-01-11'
p4
F-0.0004745521414166123
sS'2016-06-27'
p5
F-0.00030851501439737905
sS'2016-01-05'
p6
F-0.009154611211573262
sS'2016-01-06'
p7
F0.011763349094683547
sS'2016-06-24'
p8
F0.024148024252561177
sS'2016-06-23'
p9
F-0.006343359934520057
sS'2016-06-22'
p10
F-0.0011286681715575563
sS'2016-06-21'
p11
F0.005260443527591448
sS'2016-06-20'
p12
F-0.004224626481195226
sS'2016-01-08'
p13
F-0.012328448476389885
sS'2016-06-29'
p14
F-0.0005144562197756679
sS'2016-06-28'
p15
F-0.010895261589063647
sS'2016-03-08'
p16
F0.0029421379535797126
sS'2016-03-09'
p17
F0.002056722234249813
sS'2016-03-07'
p18
F-0.0008646779074794455
sS'2016-03-04'
p19
F0.001397098334229013
sS'2016-03-02'
p20
F0.003043809109685848
sS'2016-03-03'
p21
F0.01258134490238608
sS'2016-03-01'
p22
F0.001635590448151845
sS'2016-01-07'
p23
F-0.011648022142774663
sS'2016-09-28'
p24
F0.0015792798483890446
sS'2016-09-29'
p25
F-0.007550335570469787
sS'2016-09-22'
p26
F-0.00207555002075553
sS'2016-09-23'
p27
F0.0006263701847790798
sS'2016-09-20'
p28
F0.00010470107842101251
sS'2016-09-21'
p29
F0.01006289308176094
sS'2016-09-26'
p30
F-0.0013618269432222445
sS'2016-09-27'
p31
F-0.010966057441253235
sS'2016-01-15'
p32
F0.0014423076923075762
sS'2016-01-14'
p33
F0.0057081698180519655
sS'2016-04-29'
p34
F0.014933507739263186
sS'2016-04-28'
p35
F0.012817679558011013
sS'2016-02-17'
p36
F0.011259520918423622
sS'2016-02-23'
p37
F0.002006018054162405
sS'2016-02-22'
p38
F-0.015258855585831125
sS'2016-03-18'
p39
F-0.018448592081130585
sS'2016-02-25'
p40
F0.014118685197441002
sS'2016-02-24'
p41
F0.011490406068719334
sS'2016-03-15'
p42
F0.0058695652173913725
sS'2016-03-14'
p43
F-0.0017301038062284904
sS'2016-03-17'
p44
F-0.003978066874529669
sS'2016-03-16'
p45
F0.0040034624540143315
sS'2016-03-11'
p46
F0.005748996637379338
sS'2016-08-30'
p47
F0.004030226700251946
sS'2016-08-31'
p48
F-0.0006003001500750602
sS'2016-09-30'
p49
F0.006739679865206409
sS'2016-03-21'
p50
F0.0019845644983461147
sS'2016-03-22'
p51
F-0.01412335871124353
sS'2016-03-23'
p52
F0.006379406827084582
sS'2016-03-24'
p53
F0.007494407158836549
sS'2016-03-28'
p54
F0.002108066126705844
sS'2016-03-29'
p55
F0.018403547671840315
sS'2016-02-26'
p56
F-0.014999999999999951
sS'2016-01-04'
p57
F-0.0019283121597096383
sS'2016-08-29'
p58
F0.009857117019352536
sS'2016-08-25'
p59
F0.0009017132551847999
sS'2016-08-24'
p60
F-0.01675829047703494
sS'2016-08-26'
p61
F-0.002698327037237015
sS'2016-08-23'
p62
F-0.0022063365987114994
sS'2016-08-22'
p63
F0.0044981478214853165
sS'2016-05-26'
p64
F0.007434131409205278
sS'2016-05-27'
p65
F0.003141588126963406
sS'2016-05-24'
p66
F0.006834215167548551
sS'2016-05-25'
p67
F-0.0008748906386701476
sS'2016-09-08'
p68
F-0.00969207470974249
sS'2016-09-09'
p69
F-0.016463851109520394
sS'2016-05-20'
p70
F-0.0013202772582242772
sS'2016-09-06'
p71
F0.0016059419853458878
sS'2016-09-07'
p72
F-0.005118426334805351
sS'2016-09-01'
p73
F-0.005196881870877434
sS'2016-09-02'
p74
F-0.007000000000000029
sS'2016-03-31'
p75
F0.006338105125122918
sS'2016-03-30'
p76
F-0.0016304347826087574
sS'2016-10-06'
p77
F0.006881219563836605
sS'2016-10-07'
p78
F-0.0015729865771812676
sS'2016-10-04'
p79
F-0.0019953791220331625
sS'2016-10-05'
p80
F-0.003157562361856766
sS'2016-10-03'
p81
F0.0011542497376705082
sS'2016-05-23'
p82
F0.004210992907801526
sS'2016-08-10'
p83
F0.011952191235059828
sS'2016-08-11'
p84
F0.000357142857142913
sS'2016-08-12'
p85
F-0.0030408729093999052
sS'2016-08-15'
p86
F0.0036801005295754117
sS'2016-08-16'
p87
F0.001347103726987029
sS'2016-08-17'
p88
F0.015578834273435484
sS'2016-08-18'
p89
F-0.00457786777005027
sS'2016-08-19'
p90
F0.006109979633401202
sS'2016-09-13'
p91
F-0.012750642673521799
sS'2016-09-12'
p92
F0.009318699523710972
sS'2016-05-31'
p93
F0.0010781671159029037
sS'2016-09-16'
p94
F-0.006244796003330499
sS'2016-09-15'
p95
F0.004288702928870406
sS'2016-09-14'
p96
F-0.004769805060140956
sS'2016-04-21'
p97
F-0.018261344997266282
sS'2016-04-20'
p98
F-0.014101184068891305
sS'2016-09-19'
p99
F-0.0045885910939618075
sS'2016-04-22'
p100
F0.007454383622607941
sS'2016-04-25'
p101
F0.010506525105065282
sS'2016-04-27'
p102
F0.011464826357969736
sS'2016-04-26'
p103
F0.016333938294010864
sS'2016-05-17'
p104
F-0.017866811044937647
sS'2016-10-19'
p105
F-0.005925155925156002
sS'2016-10-18'
p106
F-0.009563965446318313
sS'2016-05-16'
p107
F0.004660741383047827
sS'2016-10-14'
p108
F0.005002605523710307
sS'2016-10-17'
p109
F0.003526970954356734
sS'2016-10-11'
p110
F-0.011593900146229366
sS'2016-10-10'
p111
F0.003991177397332315
sS'2016-10-13'
p112
F0.010672020287404957
sS'2016-10-12'
p113
F0.002745802091033954
sS'2016-05-09'
p114
F0.007408214402440272
sS'2016-08-05'
p115
F0.007398718758458968
sS'2016-08-04'
p116
F9.032607713851609e-05
sS'2016-07-06'
p117
F-0.014872904272579696
sS'2016-07-07'
p118
F0.0003636363636364205
sS'2016-08-01'
p119
F0.01584829607914991
sS'2016-07-05'
p120
F0.004999999999999974
sS'2016-07-08'
p121
F0.0024449877750610887
sS'2016-05-03'
p122
F-0.006844919786096262
sS'2016-05-04'
p123
F-0.0023819835426591475
sS'2016-05-05'
p124
F-0.0019548218940051328
sS'2016-08-09'
p125
F-0.001358449556239863
sS'2016-08-08'
p126
F-0.008420675445668708
sS'2016-04-18'
p127
F0.00642123287671242
sS'2016-04-19'
p128
F0.004568150430256102
sS'2016-04-14'
p129
F0.0008685267614808196
sS'2016-04-15'
p130
F0.01288994800693254
sS'2016-04-11'
p131
F-0.0038064165307233116
sS'2016-04-12'
p132
F0.007655293088363986
sS'2016-04-13'
p133
F-0.0010845986984816542
sS'2016-06-16'
p134
F0.007390444467575809
sS'2016-06-17'
p135
F0.004967401428127952
sS'2016-06-14'
p136
F0.01311234658554495
sS'2016-06-15'
p137
F-0.005384695039867412
sS'2016-06-13'
p138
F-0.004061653822120398
sS'2016-06-10'
p139
F0.0032261421583931965
sS'2016-10-20'
p140
F-0.005956735291043925
sS'2016-10-21'
p141
F0.003578194064407529
sS'2016-02-29'
p142
F0.004420377942314131
sS'2016-07-11'
p143
F-0.003257918552036194
sS'2016-07-13'
p144
F-0.0019347705914870826
sS'2016-07-12'
p145
F-0.013069522599382936
sS'2016-07-15'
p146
F0.020566263949091484
sS'2016-07-14'
p147
F-0.004787772764938735
sS'2016-05-19'
p148
F0.011607142857142927
sS'2016-05-18'
p149
F-0.004099722991689801
sS'2016-07-19'
p150
F-0.0003656975681110993
sS'2016-07-18'
p151
F-0.009239967388350359
sS'2016-05-13'
p152
F-0.00602150537634411
sS'2016-05-12'
p153
F0.007679826933477488
sS'2016-05-11'
p154
F-0.007318123116659565
sS'2016-05-10'
p155
F0.004420485175202119
sS'2016-04-01'
p156
F0.019806290129502593
sS'2016-07-01'
p157
F-0.0013380909901872567
sS'2016-04-07'
p158
F-0.002629272567922819
sS'2016-04-06'
p159
F0.005252790544977063
sS'2016-04-05'
p160
F-0.01594483947425113
sS'2016-04-04'
p161
F-0.013964396119816674
sS'2016-08-03'
p162
F-0.015154216437867737
sS'2016-04-08'
p163
F0.006136986301369888
sS'2016-08-02'
p164
F0.013920274789840065
sS'2016-01-22'
p165
F0.0002346591575735776
sS'2016-01-20'
p166
F0.013233190271816875
sS'2016-01-21'
p167
F-0.00353107344632765
sS'2016-06-09'
p168
F0.02935838582256859
sS'2016-06-08'
p169
F0.0065513908280528345
sS'2016-01-25'
p170
F-0.013425980449888124
sS'2016-06-07'
p171
F-0.0016066838046273103
sS'2016-06-06'
p172
F-0.0022459893048127674
sS'2016-06-01'
p173
F-0.00021500752526334144
sS'2016-06-03'
p174
F0.008086253369272238
sS'2016-06-02'
p175
F-0.000538735050102329
sS'2016-02-18'
p176
F-0.01006454436057326
sS'2016-02-19'
p177
F0.004967984102450904
sS'2016-02-12'
p178
F0.00797842454208347
sS'2016-02-10'
p179
F-0.0007793364506790602
sS'2016-02-11'
p180
F-0.005953718265558314
sS'2016-02-16'
p181
F0.00433333333333334
sS'2016-05-02'
p182
F0.006875805758487329
sS'2016-07-25'
p183
F0.005982596084119025
sS'2016-07-26'
p184
F-0.013153153153153097
sS'2016-07-27'
p185
F-0.01591777333090777
sS'2016-07-20'
p186
F0.00100908173562058
sS'2016-07-21'
p187
F0.0018283206874486044
sS'2016-07-22'
p188
F0.004109589041095916
sS'2016-07-28'
p189
F0.017080745341614818
sS'2016-07-29'
p190
F-0.002341920374707178
sS'2016-05-06'
p191
F0.00010917030567691175
sS'2016-01-26'
p192
F0.011292048020920039
sS'2016-01-27'
p193
F-0.008572099577266202
sS'2016-06-30'
p194
F0.16340338288057404
sS'2016-01-19'
p195
F0.011234612166845915
sS'2016-01-28'
p196
F0.014932337844143738
sS'2016-02-09'
p197
F0.00864682762492977
sS'2016-02-08'
p198
F0.029273870783304772
sS'2016-02-01'
p199
F0.013266810295951942
sS'2016-02-03'
p200
F-0.007268254500726889
sS'2016-02-02'
p201
F0.01164236464338195
sS'2016-02-05'
p202
F-0.013387332658341746
sS'2016-02-04'
p203
F-0.000901713255184832
s.