(dp0
S'2016-01-29'
p1
F0.01164294954721861
sS'2016-01-13'
p2
F-0.03786444528587656
sS'2016-01-12'
p3
F0.003829950210647316
sS'2016-01-11'
p4
F0.005780346820809331
sS'2016-06-27'
p5
F-0.010021786492374746
sS'2016-01-05'
p6
F-0.01841413002630584
sS'2016-01-06'
p7
F0.022454510259388383
sS'2016-06-24'
p8
F-0.02692469499368955
sS'2016-06-23'
p9
F0.006480356419603084
sS'2016-06-22'
p10
F-0.011372867587327421
sS'2016-06-21'
p11
F0.006519967400163005
sS'2016-06-20'
p12
F0.00944946589975351
sS'2016-01-08'
p13
F-0.008471313053523253
sS'2016-06-29'
p14
F0.005608283002588395
sS'2016-06-28'
p15
F0.004368719965050147
sS'2016-03-08'
p16
F0.0020815986677768824
sS'2016-03-09'
p17
F-0.016023007395234205
sS'2016-03-07'
p18
F-0.004105090311986776
sS'2016-03-04'
p19
F0.01454696591853705
sS'2016-03-02'
p20
F-0.016991297140489026
sS'2016-03-03'
p21
F0.010552975939214858
sS'2016-03-01'
p22
F0.010837849103793313
sS'2016-01-07'
p23
F-0.0042635658914728465
sS'2016-09-28'
p24
F-0.003129890453834049
sS'2016-09-29'
p25
F-0.022397094430992796
sS'2016-09-22'
p26
F0.00811992504684566
sS'2016-09-23'
p27
F-0.006505576208178465
sS'2016-09-20'
p28
F-0.012283464566929152
sS'2016-09-21'
p29
F0.013016476552598284
sS'2016-09-26'
p30
F-0.006587202007528146
sS'2016-09-27'
p31
F0.004078616352201248
sS'2016-01-15'
p32
F0.007984031936127716
sS'2016-01-14'
p33
F0.017309205350117925
sS'2016-04-29'
p34
F0.002462043496101712
sS'2016-04-28'
p35
F-0.018732562774013507
sS'2016-02-17'
p36
F0.0060658578856152764
sS'2016-02-23'
p37
F-0.017262895174708782
sS'2016-02-22'
p38
F0.012108559498956123
sS'2016-03-18'
p39
F0.0004208754208753371
sS'2016-02-25'
p40
F0.006242197253433149
sS'2016-02-24'
p41
F0.022620571916346612
sS'2016-03-15'
p42
F-0.021576763485477306
sS'2016-03-14'
p43
F0.010824313072439699
sS'2016-03-17'
p44
F-0.0008410428931875346
sS'2016-03-16'
p45
F0.009808102345415797
sS'2016-03-11'
p46
F0.002085940759282466
sS'2016-03-10'
p47
F-0.014559068219633856
sS'2016-08-30'
p48
F0.009853782581055267
sS'2016-08-31'
p49
F0.015792798483891233
sS'2016-09-30'
p50
F0.01261926746691279
sS'2016-03-21'
p51
F0.022259554808903872
sS'2016-03-22'
p52
F-0.0012417218543046829
sS'2016-03-23'
p53
F0.003320880033208877
sS'2016-03-24'
p54
F0.008288437629506809
sS'2016-03-28'
p55
F-0.006998764923836894
sS'2016-03-29'
p56
F0.016877637130801777
sS'2016-02-26'
p57
F-0.008610086100861043
sS'2016-01-04'
p58
F-0.026927333087421634
sS'2016-08-29'
p59
F0.0047999999999999545
sS'2016-08-25'
p60
F0.008365508365508416
sS'2016-08-24'
p61
F0.016590761223162057
sS'2016-08-26'
p62
F-0.0009572431397575347
sS'2016-08-23'
p63
F-0.00032594524119941364
sS'2016-08-22'
p64
F0.005252790544977024
sS'2016-05-26'
p65
F0.005838198498748981
sS'2016-05-27'
p66
F0.007860984691766559
sS'2016-05-24'
p67
F0.0173434856175973
sS'2016-05-25'
p68
F0.0052279381012128815
sS'2016-09-08'
p69
F0.0061538461538462414
sS'2016-09-09'
p70
F-0.016347933374460243
sS'2016-05-20'
p71
F0.008959044368600566
sS'2016-09-06'
p72
F0.006521739130434588
sS'2016-09-07'
p73
F0.0018489984591678016
sS'2016-09-01'
p74
F-0.0006220839813373568
sS'2016-09-02'
p75
F-0.0006191950464395054
sS'2016-03-31'
p76
F-0.011189390799834213
sS'2016-03-30'
p77
F-0.0008312551953449532
sS'2016-10-06'
p78
F0.0006226650062267474
sS'2016-10-07'
p79
F-0.0195348837209302
sS'2016-10-04'
p80
F-0.004585753592173603
sS'2016-10-05'
p81
F-0.00771604938271605
sS'2016-10-03'
p82
F0.04025559105431315
sS'2016-05-23'
p83
F0.0034217279726262554
sS'2016-08-10'
p84
F0.00032144005143045846
sS'2016-08-11'
p85
F0.0003206155819172174
sS'2016-08-12'
p86
F-0.010570147341447735
sS'2016-08-15'
p87
F0.0012903225806451338
sS'2016-08-16'
p88
F-0.002265372168284799
sS'2016-08-17'
p89
F-0.008743523316062162
sS'2016-08-18'
p90
F0.00032776138970822715
sS'2016-08-19'
p91
F0.005581089954038022
sS'2016-09-13'
p92
F-0.00777363184079591
sS'2016-09-12'
p93
F0.02589201136722451
sS'2016-05-31'
p94
F0.00699876492383704
sS'2016-09-16'
p95
F0.0018921475875117856
sS'2016-09-15'
p96
F0.0075614366729679265
sS'2016-09-14'
p97
F-0.008419083255378846
sS'2016-04-21'
p98
F0.002436053593179142
sS'2016-04-20'
p99
F0.014814814814814791
sS'2016-09-19'
p100
F-0.007544797233574299
sS'2016-04-22'
p101
F-0.008533116619260497
sS'2016-04-25'
p102
F-0.007377049180327858
sS'2016-04-27'
p103
F-0.002368732727990475
sS'2016-04-26'
p104
F0.013239553165080542
sS'2016-05-17'
p105
F-0.01565143824027077
sS'2016-10-19'
p106
F0.019116264493889156
sS'2016-10-18'
p107
F-0.012792511700467914
sS'2016-05-16'
p108
F0.0050675675675676095
sS'2016-10-14'
p109
F0.0021998742928975574
sS'2016-10-17'
p110
F-0.01790676134609453
sS'2016-10-11'
p111
F-0.015644555694618274
sS'2016-10-10'
p112
F-0.0018744142455482263
sS'2016-10-13'
p113
F-0.008807801195344371
sS'2016-10-12'
p114
F0.007033248081841395
sS'2016-05-09'
p115
F0.009667927700714604
sS'2016-08-05'
p116
F0.007704654895666196
sS'2016-08-04'
p117
F0.003878474466709678
sS'2016-07-06'
p118
F0.005061155630535531
sS'2016-07-07'
p119
F0.0004180602006688131
sS'2016-08-01'
p120
F-0.0015974440894568917
sS'2016-07-05'
p121
F0.002108814846056546
sS'2016-07-08'
p122
F0.024562864279766856
sS'2016-05-03'
p123
F-0.003739094308267547
sS'2016-05-04'
p124
F-0.000839630562552459
sS'2016-05-05'
p125
F-0.008742714404662818
sS'2016-08-09'
p126
F-0.0035233824471492454
sS'2016-08-08'
p127
F-0.0073295092415551445
sS'2016-04-18'
p128
F0.02056451612903218
sS'2016-04-19'
p129
F-0.014198782961460361
sS'2016-04-14'
p130
F-0.00316330565440879
sS'2016-04-15'
p131
F-0.0035559067562228315
sS'2016-04-11'
p132
F-0.0045510964004966065
sS'2016-04-12'
p133
F0.009508061182306755
sS'2016-04-13'
p134
F0.020341741253051264
sS'2016-06-16'
p135
F-0.0037593984962405952
sS'2016-06-17'
p136
F0.002106149957877031
sS'2016-06-14'
p137
F0.003783102143757876
sS'2016-06-15'
p138
F-0.0012505210504375817
sS'2016-06-13'
p139
F-0.005412156536219776
sS'2016-06-10'
p140
F-0.0037251655629139016
sS'2016-10-20'
p141
F-0.01627118644067798
sS'2016-10-21'
p142
F0.0
sS'2016-02-29'
p143
F-0.013266998341625218
sS'2016-07-11'
p144
F0.004850444624090582
sS'2016-07-13'
p145
F0.0
sS'2016-07-12'
p146
F0.006407689227072493
sS'2016-07-15'
p147
F0.005343511450381701
sS'2016-07-14'
p148
F0.024754420432220002
sS'2016-05-19'
p149
F-0.0072064434082237455
sS'2016-05-18'
p150
F0.01630201630201641
sS'2016-07-19'
p151
F-0.003384731101918009
sS'2016-07-18'
p152
F0.009912314144109723
sS'2016-05-13'
p153
F0.005496828752642815
sS'2016-05-12'
p154
F-0.013801756587202084
sS'2016-05-11'
p155
F-0.01575456053068004
sS'2016-05-10'
p156
F0.004991680532445965
sS'2016-04-01'
p157
F-0.020106688551497824
sS'2016-07-01'
p158
F0.014938113529662886
sS'2016-04-07'
p159
F-0.026655896607431347
sS'2016-04-06'
p160
F0.04008179959100206
sS'2016-04-05'
p161
F0.029548332629801572
sS'2016-04-04'
p162
F0.026923076923077036
sS'2016-08-03'
p163
F0.004870129870129824
sS'2016-04-08'
p164
F-0.005782734407269747
sS'2016-08-02'
p165
F-0.009011908593498588
sS'2016-01-22'
p166
F-0.0011337868480726053
sS'2016-01-20'
p167
F0.03945249597423512
sS'2016-01-21'
p168
F0.008504058755314993
sS'2016-06-09'
p169
F0.005787515502273543
sS'2016-06-08'
p170
F-0.0008247422680412195
sS'2016-01-25'
p171
F-0.010037878787878676
sS'2016-06-07'
p172
F0.006216328222130217
sS'2016-06-06'
p173
F0.00041701417848198543
sS'2016-06-01'
p174
F-0.014735980352026175
sS'2016-06-03'
p175
F-0.009500206526228848
sS'2016-06-02'
p176
F0.004140786749482461
sS'2016-02-18'
p177
F0.017733564013840835
sS'2016-02-19'
p178
F0.01621852326077674
sS'2016-02-12'
p179
F0.004915102770330628
sS'2016-02-10'
p180
F0.002245172878311662
sS'2016-02-11'
p181
F0.006839945280437692
sS'2016-02-16'
p182
F0.029147982062780204
sS'2016-05-02'
p183
F0.003308519437551772
sS'2016-07-25'
p184
F0.01220719234576051
sS'2016-07-26'
p185
F0.027486910994764396
sS'2016-07-27'
p186
F-0.004134860050890666
sS'2016-07-20'
p187
F0.014280345734686171
sS'2016-07-21'
p188
F0.036716314513335596
sS'2016-07-22'
p189
F0.022811137202281104
sS'2016-07-28'
p190
F-0.0035166240409206977
sS'2016-07-29'
p191
F0.001285347043701772
sS'2016-05-06'
p192
F0.006337135614702094
sS'2016-01-26'
p193
F0.017175572519083943
sS'2016-01-27'
p194
F-0.010857356795207756
sS'2016-06-30'
p195
F0.0021404109589041403
sS'2016-01-19'
p196
F0.006247559547051938
sS'2016-01-28'
p197
F-0.004304778303917409
sS'2016-02-09'
p198
F-0.008111762054979708
sS'2016-02-08'
p199
F-0.016622922134733115
sS'2016-02-01'
p200
F0.02570694087403605
sS'2016-02-03'
p201
F0.0021321961620469386
sS'2016-02-02'
p202
F-0.018128161888701505
sS'2016-02-05'
p203
F-0.010660980810234541
sS'2016-02-04'
p204
F0.0
s.