(dp0
S'2016-01-29'
p1
F0.021418249380677157
sS'2016-01-13'
p2
F-0.04030048190494189
sS'2016-01-12'
p3
F-0.013270186626652837
sS'2016-01-11'
p4
F-0.024736452746439774
sS'2016-06-27'
p5
F-0.0016337285902503413
sS'2016-01-05'
p6
F0.004297868608016796
sS'2016-01-06'
p7
F0.004933991198826571
sS'2016-06-24'
p8
F0.0014750039509034457
sS'2016-06-23'
p9
F0.0007882291119284143
sS'2016-06-22'
p10
F-0.002306563220800995
sS'2016-06-21'
p11
F0.0003145808210559549
sS'2016-06-20'
p12
F-0.0009947643979057472
sS'2016-01-08'
p13
F-0.018547140649149852
sS'2016-06-29'
p14
F-0.0005798629414864798
sS'2016-06-28'
p15
F-0.0005801381783661918
sS'2016-03-08'
p16
F-0.0027969583078401644
sS'2016-03-09'
p17
F0.025030418911872028
sS'2016-03-07'
p18
F-0.03688799463447356
sS'2016-03-04'
p19
F0.01126927639383154
sS'2016-03-02'
p20
F0.028109687956674942
sS'2016-03-03'
p21
F-0.014318200960161735
sS'2016-03-01'
p22
F-0.015819304627358012
sS'2016-01-07'
p23
F-0.023358386966110076
sS'2016-09-28'
p24
F0.0004682622268470521
sS'2016-09-29'
p25
F-0.007229792988661117
sS'2016-09-22'
p26
F0.0001558846453624377
sS'2016-09-23'
p27
F0.0019228770398087756
sS'2016-09-20'
p28
F0.0013003901170351106
sS'2016-09-21'
p29
F0.0005200208008320037
sS'2016-09-26'
p30
F0.0020243965740980347
sS'2016-09-27'
p31
F-0.004145077720207313
sS'2016-01-15'
p32
F0.0018882367951008143
sS'2016-01-14'
p33
F-0.0017193947730398621
sS'2016-04-29'
p34
F-0.028679947290907594
sS'2016-04-28'
p35
F0.027480788506515256
sS'2016-02-17'
p36
F0.049541457880306415
sS'2016-02-23'
p37
F0.001035464664768354
sS'2016-02-22'
p38
F0.01979157544443476
sS'2016-03-18'
p39
F0.02818181818181813
sS'2016-02-25'
p40
F0.01078739488660491
sS'2016-02-24'
p41
F0.02642365047527689
sS'2016-03-15'
p42
F-0.015754066252235445
sS'2016-03-14'
p43
F0.015323348627824395
sS'2016-03-17'
p44
F0.0018264840182648661
sS'2016-03-16'
p45
F-0.014715118887393455
sS'2016-03-11'
p46
F-0.00551011622901421
sS'2016-03-10'
p47
F-0.028967148044928576
sS'2016-08-30'
p48
F5.200478444026901e-05
sS'2016-08-31'
p49
F0.002444351986686077
sS'2016-09-30'
p50
F0.0017296504009644768
sS'2016-03-21'
p51
F0.011837455830388723
sS'2016-03-22'
p52
F-0.0013208876364917725
sS'2016-03-23'
p53
F-0.012210119465917081
sS'2016-03-24'
p54
F-0.007419989272304651
sS'2016-03-28'
p55
F-0.023534675615212487
sS'2016-03-29'
p56
F0.028317757009345804
sS'2016-02-26'
p57
F0.010784149807724394
sS'2016-01-04'
p58
F0.015716473025308517
sS'2016-08-29'
p59
F-0.0007275750961437811
sS'2016-08-25'
p60
F0.0
sS'2016-08-24'
p61
F0.0004170576582213143
sS'2016-08-26'
p62
F0.002760848049174356
sS'2016-08-23'
p63
F0.00010427528675694374
sS'2016-08-22'
p64
F0.0019331243469174742
sS'2016-05-26'
p65
F-0.006915097963887865
sS'2016-05-27'
p66
F0.017190645810748237
sS'2016-05-24'
p67
F0.023807627995859615
sS'2016-05-25'
p68
F0.0067441860465116635
sS'2016-09-08'
p69
F0.00031121946159034326
sS'2016-09-09'
p70
F-0.000570391495981256
sS'2016-05-20'
p71
F-0.001510934393638153
sS'2016-09-06'
p72
F0.00031131634929695574
sS'2016-09-07'
p73
F0.00046699875467000524
sS'2016-09-01'
p74
F0.0009348221241234921
sS'2016-09-02'
p75
F0.00031130019715680334
sS'2016-03-31'
p76
F0.007222760503831526
sS'2016-03-30'
p77
F0.02089686098654707
sS'2016-10-06'
p78
F-0.0015620932048946178
sS'2016-10-07'
p79
F-0.002712571726656139
sS'2016-10-04'
p80
F0.001771848454843939
sS'2016-10-05'
p81
F5.202913631643771e-05
sS'2016-10-03'
p82
F0.004185194873136191
sS'2016-05-23'
p83
F-0.003979307600477516
sS'2016-08-10'
p84
F0.0006253908692933321
sS'2016-08-11'
p85
F-0.0006252605252187168
sS'2016-08-12'
p86
F-0.0013030334618993015
sS'2016-08-15'
p87
F-0.002401837928153759
sS'2016-08-16'
p88
F0.0023089840470192995
sS'2016-08-17'
p89
F0.0020942408376963648
sS'2016-08-18'
p90
F0.0005228484785110465
sS'2016-08-19'
p91
F0.0009931524750404982
sS'2016-09-13'
p92
F-0.0004669260700389282
sS'2016-09-12'
p93
F0.0006747288109203503
sS'2016-05-31'
p94
F0.03802281368821293
sS'2016-09-16'
p95
F-0.0002078569943878198
sS'2016-09-15'
p96
F-0.0005708354955889218
sS'2016-09-14'
p97
F0.0011418487569419156
sS'2016-04-21'
p98
F0.026939471440750186
sS'2016-04-20'
p99
F0.013563714902807717
sS'2016-09-19'
p100
F-0.0009356481962782348
sS'2016-04-22'
p101
F0.0009217362158538582
sS'2016-04-25'
p102
F0.010483938606055523
sS'2016-04-27'
p103
F-0.01687484490032266
sS'2016-04-26'
p104
F0.011223900305356107
sS'2016-05-17'
p105
F0.006244146113018911
sS'2016-10-19'
p106
F-0.0003675119441381487
sS'2016-10-18'
p107
F-0.0010494280617064594
sS'2016-05-16'
p108
F0.011529411764705873
sS'2016-10-14'
p109
F0.001259842519685087
sS'2016-10-17'
p110
F-0.002409512335655586
sS'2016-10-11'
p111
F-0.0021494102228047005
sS'2016-10-10'
p112
F-0.0025627615062760495
sS'2016-10-13'
p113
F5.2479664130101835e-05
sS'2016-10-12'
p114
F0.00042019013603662226
sS'2016-05-09'
p115
F0.004626569729015103
sS'2016-08-05'
p116
F-0.0005201560468140146
sS'2016-08-04'
p117
F-0.0024418121363258462
sS'2016-07-06'
p118
F0.0025794904190354845
sS'2016-07-07'
p119
F-0.0011028832519300875
sS'2016-08-01'
p120
F0.0009849663037843324
sS'2016-07-05'
p121
F-0.0004734350341925482
sS'2016-07-08'
p122
F0.00136712588074451
sS'2016-05-03'
p123
F-0.016998504761155244
sS'2016-05-04'
p124
F0.002818262339963029
sS'2016-05-05'
p125
F-0.018887472107108737
sS'2016-08-09'
p126
F0.0005735439803952951
sS'2016-08-08'
p127
F-0.002496878901373378
sS'2016-04-18'
p128
F0.019350380096751857
sS'2016-04-19'
p129
F-0.023684655726611378
sS'2016-04-14'
p130
F0.03764436216168558
sS'2016-04-15'
p131
F-0.007996597192683945
sS'2016-04-11'
p132
F0.0033966767648947976
sS'2016-04-12'
p133
F0.0010038328162073318
sS'2016-04-13'
p134
F0.023396567299006354
sS'2016-06-16'
p135
F0.001413168638124203
sS'2016-06-17'
p136
F-0.0026136957658128594
sS'2016-06-14'
p137
F-0.0033804867900978034
sS'2016-06-15'
p138
F-0.001096605744125368
sS'2016-06-13'
p139
F-0.010705646198980824
sS'2016-06-10'
p140
F-0.029037037037036945
sS'2016-10-20'
p141
F0.0
sS'2016-10-21'
p142
F-0.0014705882352941235
sS'2016-02-29'
p143
F-0.0301249689646611
sS'2016-07-11'
p144
F-0.0006827731092436736
sS'2016-07-13'
p145
F-0.0023645630812883646
sS'2016-07-12'
p146
F0.00021023862083475488
sS'2016-07-15'
p147
F0.0013205155292626241
sS'2016-07-14'
p148
F-0.0031068983675618927
sS'2016-05-19'
p149
F-0.019263899765074456
sS'2016-05-18'
p150
F0.0030468749999998934
sS'2016-07-19'
p151
F0.0024287222808870535
sS'2016-07-18'
p152
F0.0005277044854880967
sS'2016-05-13'
p153
F0.0037133601959391097
sS'2016-05-12'
p154
F-0.01696490820357888
sS'2016-05-11'
p155
F-0.0005433095312014373
sS'2016-05-10'
p156
F0.054728403141361355
sS'2016-04-01'
p157
F0.014832367912936614
sS'2016-07-01'
p158
F0.0005808120808913546
sS'2016-04-07'
p159
F-0.015929978118161867
sS'2016-04-06'
p160
F0.003849182048814607
sS'2016-04-05'
p161
F-0.008287533804414103
sS'2016-04-04'
p162
F-0.0002601005722212687
sS'2016-08-03'
p163
F-0.0007276507276508045
sS'2016-04-08'
p164
F-0.03754326795065238
sS'2016-08-02'
p165
F-0.0025387285632867762
sS'2016-01-22'
p166
F-0.0011017628205128149
sS'2016-01-20'
p167
F-0.0026342131605289498
sS'2016-01-21'
p168
F-0.009241372108808073
sS'2016-06-09'
p169
F0.0019081168354617595
sS'2016-06-08'
p170
F-0.001715393794749539
sS'2016-01-25'
p171
F-0.02562553491416203
sS'2016-06-07'
p172
F-0.016911764705882435
sS'2016-06-06'
p173
F0.008247269485102795
sS'2016-06-01'
p174
F0.011067660296613296
sS'2016-06-03'
p175
F-0.0008876396183149978
sS'2016-06-02'
p176
F-0.0016821472975937233
sS'2016-02-18'
p177
F0.016848897651908903
sS'2016-02-19'
p178
F0.01367916148516616
sS'2016-02-12'
p179
F-0.030212929215423033
sS'2016-02-10'
p180
F-0.00039292730844785894
sS'2016-02-11'
p181
F0.027303415409054805
sS'2016-02-16'
p182
F0.03687762887606374
sS'2016-05-02'
p183
F0.022862586330078555
sS'2016-07-25'
p184
F0.004921465968586376
sS'2016-07-26'
p185
F0.004958246346555412
sS'2016-07-27'
p186
F0.0008848175714360897
sS'2016-07-20'
p187
F-0.0007380462860455815
sS'2016-07-21'
p188
F0.000897571277719047
sS'2016-07-22'
p189
F0.0020045365827926123
sS'2016-07-28'
p190
F0.0049396838602330335
sS'2016-07-29'
p191
F-0.0012437166398922583
sS'2016-05-06'
p192
F-0.009351874440920597
sS'2016-01-26'
p193
F0.012178759417896508
sS'2016-01-27'
p194
F-0.03217006382540663
sS'2016-06-30'
p195
F-0.0021091484313208843
sS'2016-01-19'
p196
F-0.023080808080808046
sS'2016-01-28'
p197
F-0.020297283444387536
sS'2016-02-09'
p198
F-0.07102115915363384
sS'2016-02-08'
p199
F0.02583955223880593
sS'2016-02-01'
p200
F0.04013749873622484
sS'2016-02-03'
p201
F-0.06369333202780765
sS'2016-02-02'
p202
F-0.020133904917874892
sS'2016-02-05'
p203
F-0.13531195149194197
sS'2016-02-04'
p204
F0.0036538260778786334
s.