(dp0
S'2016-01-29'
p1
F-0.012248539909149944
sS'2016-01-13'
p2
F0.017453183520599345
sS'2016-01-12'
p3
F0.005611672278338945
sS'2016-01-11'
p4
F-0.010773082467187523
sS'2016-06-27'
p5
F0.018333561362703563
sS'2016-01-05'
p6
F0.006653992395437238
sS'2016-01-06'
p7
F-0.00587885101949689
sS'2016-06-24'
p8
F0.022537840901513607
sS'2016-06-23'
p9
F-0.012381883349625323
sS'2016-06-22'
p10
F0.005398373983739919
sS'2016-06-21'
p11
F0.0007135443694861522
sS'2016-06-20'
p12
F-0.006618610747051241
sS'2016-01-08'
p13
F0.011638384141763112
sS'2016-06-29'
p14
F-0.01337883959044374
sS'2016-06-28'
p15
F-0.00635446884928849
sS'2016-03-08'
p16
F0.004580917615059872
sS'2016-03-09'
p17
F-0.007896059148661217
sS'2016-03-07'
p18
F-0.02090617715617719
sS'2016-03-04'
p19
F-0.0019267822736031904
sS'2016-03-02'
p20
F-0.019446522064323284
sS'2016-03-03'
p21
F-0.004226789097799246
sS'2016-03-01'
p22
F-0.01610707803992737
sS'2016-01-07'
p23
F0.006282722513088819
sS'2016-09-28'
p24
F-0.008280782215427626
sS'2016-09-29'
p25
F0.003278068461198902
sS'2016-09-22'
p26
F0.0002561639449247009
sS'2016-09-23'
p27
F0.004112581930343239
sS'2016-09-20'
p28
F0.009110155899146826
sS'2016-09-21'
p29
F-0.004002323930023914
sS'2016-09-26'
p30
F0.003107600673313597
sS'2016-09-27'
p31
F-0.015876101607050396
sS'2016-01-15'
p32
F-0.00015383432043696818
sS'2016-01-14'
p33
F-0.007428181611460545
sS'2016-04-29'
p34
F0.0037545224930030127
sS'2016-04-28'
p35
F0.01789649415692826
sS'2016-02-17'
p36
F-0.019319375959906238
sS'2016-02-23'
p37
F0.005558059185819294
sS'2016-02-22'
p38
F0.0005230125523012042
sS'2016-03-18'
p39
F0.002103120759837193
sS'2016-02-25'
p40
F-0.009077950333858564
sS'2016-02-24'
p41
F-0.009502090459901177
sS'2016-03-15'
p42
F-0.00860730915761252
sS'2016-03-14'
p43
F-0.005422153369481095
sS'2016-03-17'
p44
F-0.015609890868904483
sS'2016-03-16'
p45
F-0.015215257327163003
sS'2016-03-11'
p46
F-0.004445071615042855
sS'2016-08-30'
p47
F0.002503755633450033
sS'2016-08-31'
p48
F0.0048853814355505525
sS'2016-09-30'
p49
F0.00031466331025809544
sS'2016-03-21'
p50
F-0.00902919212491503
sS'2016-03-22'
p51
F-0.00027016074564360424
sS'2016-03-23'
p52
F0.01756756756756753
sS'2016-03-24'
p53
F-0.020485584218512893
sS'2016-03-28'
p54
F-0.004399323181049108
sS'2016-03-29'
p55
F-0.011789416627142823
sS'2016-02-26'
p56
F0.018437290907739125
sS'2016-01-04'
p57
F-0.0025811209439527607
sS'2016-08-29'
p58
F-0.00560347541396453
sS'2016-08-25'
p59
F0.002327044025157261
sS'2016-08-24'
p60
F0.0052536118581523236
sS'2016-08-26'
p61
F0.0035246727089627535
sS'2016-08-23'
p62
F0.00043659951350353394
sS'2016-08-22'
p63
F0.0
sS'2016-05-26'
p64
F-0.005872649290663057
sS'2016-05-27'
p65
F-0.003216278306531074
sS'2016-05-24'
p66
F-0.009735838779956475
sS'2016-05-25'
p67
F-0.018532196333848054
sS'2016-09-08'
p68
F0.009654313298038064
sS'2016-09-09'
p69
F0.014807315066759497
sS'2016-05-20'
p70
F-0.010568938302106869
sS'2016-09-06'
p71
F-0.002939704778583931
sS'2016-09-07'
p72
F-0.009051751045633239
sS'2016-09-01'
p73
F-0.007705912076806461
sS'2016-09-02'
p74
F0.0020640480360269208
sS'2016-03-31'
p75
F-0.011082181721076152
sS'2016-03-30'
p76
F0.01027009003000995
sS'2016-10-06'
p77
F-0.00025503698036210176
sS'2016-10-07'
p78
F0.009354715540282544
sS'2016-10-04'
p79
F0.007674256358216399
sS'2016-10-05'
p80
F-6.366588145425179e-05
sS'2016-10-03'
p81
F0.002847020118942102
sS'2016-05-23'
p82
F0.005690671363728767
sS'2016-08-10'
p83
F0.0006782169060976954
sS'2016-08-11'
p84
F-0.00788906009244993
sS'2016-08-12'
p85
F0.007598504810343827
sS'2016-08-15'
p86
F0.0032019704433498167
sS'2016-08-16'
p87
F0.002544845136863168
sS'2016-08-17'
p88
F0.003292538982419091
sS'2016-08-18'
p89
F-0.002921250543850005
sS'2016-08-19'
p90
F0.004973887092763065
sS'2016-09-13'
p91
F0.011546025502759584
sS'2016-09-12'
p92
F-0.01951565116578643
sS'2016-05-31'
p93
F-0.007734661772417454
sS'2016-09-16'
p94
F0.007739938080495283
sS'2016-09-15'
p95
F-0.008813998703823624
sS'2016-09-14'
p96
F0.010597302504816811
sS'2016-04-21'
p97
F-0.018556419702551497
sS'2016-04-20'
p98
F-0.012964503605102637
sS'2016-09-19'
p99
F0.0
sS'2016-04-22'
p100
F0.006290149892933604
sS'2016-04-25'
p101
F-0.004387149028077793
sS'2016-04-27'
p102
F-0.007499163039839335
sS'2016-04-26'
p103
F-0.0028927009754457235
sS'2016-05-17'
p104
F0.008109376047181878
sS'2016-10-19'
p105
F6.610696106312769e-05
sS'2016-10-18'
p106
F-0.004666044527396271
sS'2016-05-16'
p107
F-0.012258719945817828
sS'2016-10-14'
p108
F0.00012947497896038216
sS'2016-10-17'
p109
F-0.002071867918420341
sS'2016-10-11'
p110
F0.012377974861226299
sS'2016-10-10'
p111
F-0.0019781762491225974
sS'2016-10-13'
p112
F-0.0001301236174366313
sS'2016-10-12'
p113
F0.004387946054075026
sS'2016-05-09'
p114
F0.0024373730534866978
sS'2016-08-05'
p115
F-0.009259259259259259
sS'2016-08-04'
p116
F-0.004289444237224902
sS'2016-07-06'
p117
F-0.0034244320052684244
sS'2016-07-07'
p118
F0.000981996726677615
sS'2016-08-01'
p119
F-0.004979769685651932
sS'2016-07-05'
p120
F-0.0032409550896223896
sS'2016-07-08'
p121
F-0.002987012987013039
sS'2016-05-03'
p122
F0.003594884203249293
sS'2016-05-04'
p123
F-0.006208147321428476
sS'2016-05-05'
p124
F-0.003562863994518741
sS'2016-08-09'
p125
F0.002774010602884901
sS'2016-08-08'
p126
F0.0042401523996804386
sS'2016-04-18'
p127
F-0.005140032948929167
sS'2016-04-19'
p128
F0.01686352154024714
sS'2016-04-14'
p129
F0.002244224422442267
sS'2016-04-15'
p130
F-0.004502118644067842
sS'2016-04-11'
p131
F0.006721682417143557
sS'2016-04-12'
p132
F-0.0001336809036827873
sS'2016-04-13'
p133
F-0.0029519071310115633
sS'2016-06-16'
p134
F-0.005792662627338734
sS'2016-06-17'
p135
F-0.006822999470058301
sS'2016-06-14'
p136
F0.001454257006874662
sS'2016-06-15'
p137
F0.005149874554337786
sS'2016-06-13'
p138
F0.0023082503462375143
sS'2016-06-10'
p139
F0.0027488709994108744
sS'2016-10-20'
p140
F-0.0015864621893178813
sS'2016-10-21'
p141
F0.006308938770089102
sS'2016-02-29'
p142
F0.00734848484848484
sS'2016-07-11'
p143
F-0.004721862871927673
sS'2016-07-13'
p144
F-0.0017115689381934087
sS'2016-07-12'
p145
F-0.006666666666666616
sS'2016-07-15'
p146
F0.0007504690431519984
sS'2016-07-14'
p147
F-0.009256344058938347
sS'2016-05-19'
p148
F0.010581649371927793
sS'2016-05-18'
p149
F0.0043921886613960785
sS'2016-07-19'
p150
F0.013598714303374884
sS'2016-07-18'
p151
F-0.0035153797865662413
sS'2016-05-13'
p152
F0.007191343504267715
sS'2016-05-12'
p153
F0.002479726559882076
sS'2016-05-11'
p154
F0.005076481196980958
sS'2016-05-10'
p155
F-0.01167026443604958
sS'2016-04-01'
p156
F-0.013354594379111151
sS'2016-07-01'
p157
F-0.0010513174321571497
sS'2016-04-07'
p158
F0.005500771449654479
sS'2016-04-06'
p159
F-0.0008005336891261143
sS'2016-04-05'
p160
F0.009443307138611945
sS'2016-04-04'
p161
F0.0017723513194171604
sS'2016-08-03'
p162
F-0.0033722600387184917
sS'2016-04-08'
p163
F-0.0019455252918287405
sS'2016-08-02'
p164
F0.004278539095926072
sS'2016-01-22'
p165
F0.01740595171252107
sS'2016-01-20'
p166
F-0.028701671450278625
sS'2016-01-21'
p167
F-0.013272877164056056
sS'2016-06-09'
p168
F-0.0032696834946377195
sS'2016-06-08'
p169
F-0.003061290952908219
sS'2016-01-25'
p170
F0.00016380016380013122
sS'2016-06-07'
p171
F-0.00013045463440095382
sS'2016-06-06'
p172
F0.0023515579071135516
sS'2016-06-01'
p173
F0.0032026143790850267
sS'2016-06-03'
p174
F-0.0032152230971127338
sS'2016-06-02'
p175
F-0.005963693557900233
sS'2016-02-18'
p176
F-0.01884615384615376
sS'2016-02-19'
p177
F-0.00543970988213961
sS'2016-02-12'
p178
F-0.014925373134328367
sS'2016-02-10'
p179
F0.03848000000000002
sS'2016-02-11'
p180
F0.007829600942919741
sS'2016-02-16'
p181
F-0.007469424608060384
sS'2016-05-02'
p182
F0.008801855895196452
sS'2016-07-25'
p183
F-0.004012345679012381
sS'2016-07-26'
p184
F0.0032585305871503296
sS'2016-07-27'
p185
F0.001788798420922724
sS'2016-07-20'
p186
F-0.00868912921172729
sS'2016-07-21'
p187
F0.0018662519440125125
sS'2016-07-22'
p188
F-0.008023385993282697
sS'2016-07-28'
p189
F6.196554715572503e-05
sS'2016-07-29'
p190
F0.004586018839861236
sS'2016-05-06'
p191
F-0.016774817064752024
sS'2016-01-26'
p192
F-0.0027811860940695574
sS'2016-01-27'
p193
F0.014421901735517072
sS'2016-06-30'
p194
F-0.019615746338841777
sS'2016-01-19'
p195
F0.015371608638844054
sS'2016-01-28'
p196
F-0.007916872835230033
sS'2016-02-09'
p197
F0.016254360926102215
sS'2016-02-08'
p198
F-0.00777777777777781
sS'2016-02-01'
p199
F-0.003456591639871323
sS'2016-02-03'
p200
F-0.005887571578353125
sS'2016-02-02'
p201
F0.005902805854289674
sS'2016-02-05'
p202
F-0.010611539066184518
sS'2016-02-04'
p203
F-0.020546850015989826
s.